target datalayout = "e-m:e-p270:32:32-p271:32:32-p272:64:64-i64:64-i128:128-f80:128-n8:16:32:64-S128"
target triple = "x86_64-pc-linux-gnu"

%"struct.vcpkg::MessageLine" = type { %"class.std::vector" }
%"class.std::vector" = type { %"struct.std::_Vector_base" }
%"struct.std::_Vector_base" = type { %"struct.std::_Vector_base<vcpkg::MessageLineSegment, std::allocator<vcpkg::MessageLineSegment>>::_Vector_impl" }
%"struct.std::_Vector_base<vcpkg::MessageLineSegment, std::allocator<vcpkg::MessageLineSegment>>::_Vector_impl" = type { %"struct.std::_Vector_base<vcpkg::MessageLineSegment, std::allocator<vcpkg::MessageLineSegment>>::_Vector_impl_data" }
%"struct.std::_Vector_base<vcpkg::MessageLineSegment, std::allocator<vcpkg::MessageLineSegment>>::_Vector_impl_data" = type { ptr, ptr, ptr }
%"struct.vcpkg::DiagnosticContext" = type { ptr }
%"struct.vcpkg::FullyBufferedDiagnosticContext" = type { %"struct.vcpkg::DiagnosticContext", %"class.std::vector.11" }
%"class.std::vector.11" = type { %"struct.std::_Vector_base.12" }
%"struct.std::_Vector_base.12" = type { %"struct.std::_Vector_base<vcpkg::MessageLine, std::allocator<vcpkg::MessageLine>>::_Vector_impl" }
%"struct.std::_Vector_base<vcpkg::MessageLine, std::allocator<vcpkg::MessageLine>>::_Vector_impl" = type { %"struct.std::_Vector_base<vcpkg::MessageLine, std::allocator<vcpkg::MessageLine>>::_Vector_impl_data" }
%"struct.std::_Vector_base<vcpkg::MessageLine, std::allocator<vcpkg::MessageLine>>::_Vector_impl_data" = type { ptr, ptr, ptr }
%"class.__gnu_cxx::__normal_iterator.35" = type { ptr }

; Function Attrs: mustprogress nounwind uwtable
define linkonce_odr dso_local noundef nonnull align 8 dereferenceable(24) ptr @_ZNK9__gnu_cxx17__normal_iteratorIPN5vcpkg11MessageLineESt6vectorIS2_SaIS2_EEEdeEv(ptr noundef nonnull align 8 dereferenceable(8) %0) #2 comdat align 2 {
  %2 = alloca ptr, align 8
  store ptr %0, ptr %2, align 8, !tbaa !402
  %3 = load ptr, ptr %2, align 8
  %4 = getelementptr inbounds nuw %"class.__gnu_cxx::__normal_iterator.35", ptr %3, i32 0, i32 0
  %5 = load ptr, ptr %4, align 8, !tbaa !408
  ret ptr %5
}

; Function Attrs: mustprogress nounwind uwtable
define linkonce_odr dso_local ptr @_ZNK9__gnu_cxx17__normal_iteratorIPN5vcpkg11MessageLineESt6vectorIS2_SaIS2_EEEmiEl(ptr noundef nonnull align 8 dereferenceable(8) %0, i64 noundef %1) #2 comdat align 2 {
  %3 = alloca %"class.__gnu_cxx::__normal_iterator.35", align 8
  %4 = alloca ptr, align 8
  %5 = alloca i64, align 8
  %6 = alloca ptr, align 8
  store ptr %0, ptr %4, align 8, !tbaa !402
  store i64 %1, ptr %5, align 8, !tbaa !16
  %7 = load ptr, ptr %4, align 8
  call void @llvm.lifetime.start.p0(i64 8, ptr %6) #20
  %8 = getelementptr inbounds nuw %"class.__gnu_cxx::__normal_iterator.35", ptr %7, i32 0, i32 0
  %9 = load ptr, ptr %8, align 8, !tbaa !408
  %10 = load i64, ptr %5, align 8, !tbaa !16
  %11 = sub i64 0, %10
  %12 = getelementptr inbounds %"struct.vcpkg::MessageLine", ptr %9, i64 %11
  store ptr %12, ptr %6, align 8, !tbaa !50
  call void @_ZN9__gnu_cxx17__normal_iteratorIPN5vcpkg11MessageLineESt6vectorIS2_SaIS2_EEEC2ERKS3_(ptr noundef nonnull align 8 dereferenceable(8) %3, ptr noundef nonnull align 8 dereferenceable(8) %6) #20
  call void @llvm.lifetime.end.p0(i64 8, ptr %6) #20
  %13 = getelementptr inbounds nuw %"class.__gnu_cxx::__normal_iterator.35", ptr %3, i32 0, i32 0
  %14 = load ptr, ptr %13, align 8
  ret ptr %14
}

; Function Attrs: mustprogress nounwind uwtable
define linkonce_odr dso_local void @_ZN9__gnu_cxx17__normal_iteratorIPN5vcpkg11MessageLineESt6vectorIS2_SaIS2_EEEC2ERKS3_(ptr noundef nonnull align 8 dereferenceable(8) %0, ptr noundef nonnull align 8 dereferenceable(8) %1) unnamed_addr #2 comdat align 2 {
  %3 = alloca ptr, align 8
  %4 = alloca ptr, align 8
  store ptr %0, ptr %3, align 8, !tbaa !402
  store ptr %1, ptr %4, align 8, !tbaa !406
  %5 = load ptr, ptr %3, align 8
  %6 = getelementptr inbounds nuw %"class.__gnu_cxx::__normal_iterator.35", ptr %5, i32 0, i32 0
  %7 = load ptr, ptr %4, align 8, !tbaa !406
  %8 = load ptr, ptr %7, align 8, !tbaa !50
  store ptr %8, ptr %6, align 8, !tbaa !408
  ret void
}

; Function Attrs: mustprogress uwtable
define linkonce_odr dso_local void @_ZNSt15__new_allocatorIN5vcpkg11MessageLineEE9constructIS1_JNS0_15LocalizedStringEEEEvPT_DpOT0_(ptr noundef nonnull align 1 dereferenceable(1) %0, ptr noundef %1, ptr noundef nonnull align 8 dereferenceable(32) %2) #0 comdat align 2 {
  %4 = alloca ptr, align 8
  %5 = alloca ptr, align 8
  %6 = alloca ptr, align 8
  store ptr %0, ptr %4, align 8, !tbaa !400
  store ptr %1, ptr %5, align 8, !tbaa !50
  store ptr %2, ptr %6, align 8, !tbaa !64
  %7 = load ptr, ptr %5, align 8, !tbaa !50
  %8 = load ptr, ptr %6, align 8, !tbaa !64
  call void @_ZN5vcpkg11MessageLineC1EONS_15LocalizedStringE(ptr noundef nonnull align 8 dereferenceable(24) %7, ptr noundef nonnull align 8 dereferenceable(32) %8)
  ret void
}

; Function Attrs: mustprogress nounwind uwtable
define linkonce_odr dso_local noundef nonnull align 8 dereferenceable(24) ptr @_ZNSt6vectorIN5vcpkg11MessageLineESaIS1_EE4backEv(ptr noundef nonnull align 8 dereferenceable(24) %0) #2 comdat align 2 {
  %2 = alloca ptr, align 8
  %3 = alloca %"class.__gnu_cxx::__normal_iterator.35", align 8
  %4 = alloca %"class.__gnu_cxx::__normal_iterator.35", align 8
  store ptr %0, ptr %2, align 8, !tbaa !97
  %5 = load ptr, ptr %2, align 8
  call void @llvm.lifetime.start.p0(i64 8, ptr %3) #20
  call void @llvm.lifetime.start.p0(i64 8, ptr %4) #20
  %6 = call ptr @_ZNSt6vectorIN5vcpkg11MessageLineESaIS1_EE3endEv(ptr noundef nonnull align 8 dereferenceable(24) %5) #20
  %7 = getelementptr inbounds nuw %"class.__gnu_cxx::__normal_iterator.35", ptr %4, i32 0, i32 0
  store ptr %6, ptr %7, align 8
  %8 = call ptr @_ZNK9__gnu_cxx17__normal_iteratorIPN5vcpkg11MessageLineESt6vectorIS2_SaIS2_EEEmiEl(ptr noundef nonnull align 8 dereferenceable(8) %4, i64 noundef 1) #20
  %9 = getelementptr inbounds nuw %"class.__gnu_cxx::__normal_iterator.35", ptr %3, i32 0, i32 0
  store ptr %8, ptr %9, align 8
  %10 = call noundef nonnull align 8 dereferenceable(24) ptr @_ZNK9__gnu_cxx17__normal_iteratorIPN5vcpkg11MessageLineESt6vectorIS2_SaIS2_EEEdeEv(ptr noundef nonnull align 8 dereferenceable(8) %3) #20
  call void @llvm.lifetime.end.p0(i64 8, ptr %4) #20
  call void @llvm.lifetime.end.p0(i64 8, ptr %3) #20
  ret ptr %10
}

; Function Attrs: mustprogress nounwind uwtable
define linkonce_odr dso_local ptr @_ZNSt6vectorIN5vcpkg11MessageLineESaIS1_EE3endEv(ptr noundef nonnull align 8 dereferenceable(24) %0) #2 comdat align 2 {
  %2 = alloca %"class.__gnu_cxx::__normal_iterator.35", align 8
  %3 = alloca ptr, align 8
  store ptr %0, ptr %3, align 8, !tbaa !97
  %4 = load ptr, ptr %3, align 8
  %5 = getelementptr inbounds nuw %"struct.std::_Vector_base.12", ptr %4, i32 0, i32 0
  %6 = getelementptr inbounds nuw %"struct.std::_Vector_base<vcpkg::MessageLine, std::allocator<vcpkg::MessageLine>>::_Vector_impl_data", ptr %5, i32 0, i32 1
  call void @_ZN9__gnu_cxx17__normal_iteratorIPN5vcpkg11MessageLineESt6vectorIS2_SaIS2_EEEC2ERKS3_(ptr noundef nonnull align 8 dereferenceable(8) %2, ptr noundef nonnull align 8 dereferenceable(8) %6) #20
  %7 = getelementptr inbounds nuw %"class.__gnu_cxx::__normal_iterator.35", ptr %2, i32 0, i32 0
  %8 = load ptr, ptr %7, align 8
  ret ptr %8
}

; Function Attrs: mustprogress uwtable
define linkonce_odr dso_local void @_ZNSt16allocator_traitsISaIN5vcpkg11MessageLineEEE9constructIS1_JNS0_15LocalizedStringEEEEvRS2_PT_DpOT0_(ptr noundef nonnull align 1 dereferenceable(1) %0, ptr noundef %1, ptr noundef nonnull align 8 dereferenceable(32) %2) #0 comdat align 2 {
  %4 = alloca ptr, align 8
  %5 = alloca ptr, align 8
  %6 = alloca ptr, align 8
  store ptr %0, ptr %4, align 8, !tbaa !397
  store ptr %1, ptr %5, align 8, !tbaa !50
  store ptr %2, ptr %6, align 8, !tbaa !64
  %7 = load ptr, ptr %4, align 8, !tbaa !397
  %8 = load ptr, ptr %5, align 8, !tbaa !50
  %9 = load ptr, ptr %6, align 8, !tbaa !64
  call void @_ZNSt15__new_allocatorIN5vcpkg11MessageLineEE9constructIS1_JNS0_15LocalizedStringEEEEvPT_DpOT0_(ptr noundef nonnull align 1 dereferenceable(1) %7, ptr noundef %8, ptr noundef nonnull align 8 dereferenceable(32) %9)
  ret void
}

; Function Attrs: mustprogress uwtable
define linkonce_odr dso_local noundef nonnull align 8 dereferenceable(24) ptr @_ZNSt6vectorIN5vcpkg11MessageLineESaIS1_EE12emplace_backIJNS0_15LocalizedStringEEEERS1_DpOT_(ptr noundef nonnull align 8 dereferenceable(24) %0, ptr noundef nonnull align 8 dereferenceable(32) %1) #0 comdat align 2 {
  %3 = alloca ptr, align 8
  %4 = alloca ptr, align 8
  %5 = alloca %"class.__gnu_cxx::__normal_iterator.35", align 8
  store ptr %0, ptr %3, align 8, !tbaa !97
  store ptr %1, ptr %4, align 8, !tbaa !64
  %6 = load ptr, ptr %3, align 8
  %7 = getelementptr inbounds nuw %"struct.std::_Vector_base.12", ptr %6, i32 0, i32 0
  %8 = getelementptr inbounds nuw %"struct.std::_Vector_base<vcpkg::MessageLine, std::allocator<vcpkg::MessageLine>>::_Vector_impl_data", ptr %7, i32 0, i32 1
  %9 = load ptr, ptr %8, align 8, !tbaa !99
  %10 = getelementptr inbounds nuw %"struct.std::_Vector_base.12", ptr %6, i32 0, i32 0
  %11 = getelementptr inbounds nuw %"struct.std::_Vector_base<vcpkg::MessageLine, std::allocator<vcpkg::MessageLine>>::_Vector_impl_data", ptr %10, i32 0, i32 2
  %12 = load ptr, ptr %11, align 8, !tbaa !101
  %13 = icmp ne ptr %9, %12
  br i1 %13, label %14, label %24

14:                                               ; preds = %2
  %15 = getelementptr inbounds nuw %"struct.std::_Vector_base.12", ptr %6, i32 0, i32 0
  %16 = getelementptr inbounds nuw %"struct.std::_Vector_base.12", ptr %6, i32 0, i32 0
  %17 = getelementptr inbounds nuw %"struct.std::_Vector_base<vcpkg::MessageLine, std::allocator<vcpkg::MessageLine>>::_Vector_impl_data", ptr %16, i32 0, i32 1
  %18 = load ptr, ptr %17, align 8, !tbaa !99
  %19 = load ptr, ptr %4, align 8, !tbaa !64
  call void @_ZNSt16allocator_traitsISaIN5vcpkg11MessageLineEEE9constructIS1_JNS0_15LocalizedStringEEEEvRS2_PT_DpOT0_(ptr noundef nonnull align 1 dereferenceable(1) %15, ptr noundef %18, ptr noundef nonnull align 8 dereferenceable(32) %19)
  %20 = getelementptr inbounds nuw %"struct.std::_Vector_base.12", ptr %6, i32 0, i32 0
  %21 = getelementptr inbounds nuw %"struct.std::_Vector_base<vcpkg::MessageLine, std::allocator<vcpkg::MessageLine>>::_Vector_impl_data", ptr %20, i32 0, i32 1
  %22 = load ptr, ptr %21, align 8, !tbaa !99
  %23 = getelementptr inbounds nuw %"struct.vcpkg::MessageLine", ptr %22, i32 1
  store ptr %23, ptr %21, align 8, !tbaa !99
  br label %30

24:                                               ; preds = %2
  %25 = call ptr @_ZNSt6vectorIN5vcpkg11MessageLineESaIS1_EE3endEv(ptr noundef nonnull align 8 dereferenceable(24) %6) #20
  %26 = getelementptr inbounds nuw %"class.__gnu_cxx::__normal_iterator.35", ptr %5, i32 0, i32 0
  store ptr %25, ptr %26, align 8
  %27 = load ptr, ptr %4, align 8, !tbaa !64
  %28 = getelementptr inbounds nuw %"class.__gnu_cxx::__normal_iterator.35", ptr %5, i32 0, i32 0
  %29 = load ptr, ptr %28, align 8
  call void @_ZNSt6vectorIN5vcpkg11MessageLineESaIS1_EE17_M_realloc_insertIJNS0_15LocalizedStringEEEEvN9__gnu_cxx17__normal_iteratorIPS1_S3_EEDpOT_(ptr noundef nonnull align 8 dereferenceable(24) %6, ptr %29, ptr noundef nonnull align 8 dereferenceable(32) %27)
  br label %30

30:                                               ; preds = %24, %14
  %31 = call noundef nonnull align 8 dereferenceable(24) ptr @_ZNSt6vectorIN5vcpkg11MessageLineESaIS1_EE4backEv(ptr noundef nonnull align 8 dereferenceable(24) %6) #20
  ret ptr %31
}

; Function Attrs: mustprogress uwtable
define dso_local void @_ZN5vcpkg30FullyBufferedDiagnosticContext8statuslnEONS_15LocalizedStringE(ptr noundef nonnull align 8 dereferenceable(32) %0, ptr noundef nonnull align 8 dereferenceable(32) %1) unnamed_addr #0 align 2 {
  %3 = alloca ptr, align 8
  %4 = alloca ptr, align 8
  store ptr %0, ptr %3, align 8, !tbaa !95
  store ptr %1, ptr %4, align 8, !tbaa !64
  %5 = load ptr, ptr %3, align 8
  %6 = getelementptr inbounds nuw %"struct.vcpkg::FullyBufferedDiagnosticContext", ptr %5, i32 0, i32 1
  %7 = load ptr, ptr %4, align 8, !tbaa !64
  %8 = call noundef nonnull align 8 dereferenceable(24) ptr @_ZNSt6vectorIN5vcpkg11MessageLineESaIS1_EE12emplace_backIJNS0_15LocalizedStringEEEERS1_DpOT_(ptr noundef nonnull align 8 dereferenceable(24) %6, ptr noundef nonnull align 8 dereferenceable(32) %7)
  ret void
}